target datalayout = "e-m:e-p270:32:32-p271:32:32-p272:64:64-i64:64-i128:128-f80:128-n8:16:32:64-S128"
target triple = "x86_64-pc-linux-gnu"

%class.GURL = type { %"class.std::__cxx11::basic_string", i8, %"struct.url::Parsed", %"class.std::unique_ptr" }
%"class.std::__cxx11::basic_string" = type { %"struct.std::__cxx11::basic_string<char>::_Alloc_hider", i64, %union.anon }
%"struct.std::__cxx11::basic_string<char>::_Alloc_hider" = type { ptr }
%union.anon = type { i64, [8 x i8] }
%"struct.url::Parsed" = type { %"struct.url::Component", %"struct.url::Component", %"struct.url::Component", %"struct.url::Component", %"struct.url::Component", %"struct.url::Component", %"struct.url::Component", %"struct.url::Component", ptr }
%"struct.url::Component" = type { i32, i32 }
%"class.std::unique_ptr" = type { %"struct.std::__uniq_ptr_data" }
%"struct.std::__uniq_ptr_data" = type { %"class.std::__uniq_ptr_impl" }
%"class.std::__uniq_ptr_impl" = type { %"class.std::tuple" }
%"class.std::tuple" = type { %"struct.std::_Tuple_impl" }
%"struct.std::_Tuple_impl" = type { %"struct.std::_Head_base.1" }
%"struct.std::_Head_base.1" = type { ptr }

; Function Attrs: mustprogress nounwind uwtable
define available_externally noundef ptr @_ZNKSt7__cxx1112basic_stringIcSt11char_traitsIcESaIcEE7_M_dataEv(ptr noundef nonnull align 8 dereferenceable(32) %0) #1 align 2 {
  %2 = alloca ptr, align 8
  store ptr %0, ptr %2, align 8, !tbaa !25
  %3 = load ptr, ptr %2, align 8
  %4 = getelementptr inbounds nuw %"class.std::__cxx11::basic_string", ptr %3, i32 0, i32 0
  %5 = getelementptr inbounds nuw %"struct.std::__cxx11::basic_string<char>::_Alloc_hider", ptr %4, i32 0, i32 0
  %6 = load ptr, ptr %5, align 8, !tbaa !115
  ret ptr %6
}

; Function Attrs: mustprogress nounwind uwtable
define linkonce_odr noundef zeroext i1 @_ZNK3url9Component11is_nonemptyEv(ptr noundef nonnull align 4 dereferenceable(8) %0) #1 comdat align 2 {
  %2 = alloca ptr, align 8
  store ptr %0, ptr %2, align 8, !tbaa !76
  %3 = load ptr, ptr %2, align 8
  %4 = getelementptr inbounds nuw %"struct.url::Component", ptr %3, i32 0, i32 1
  %5 = load i32, ptr %4, align 4, !tbaa !79
  %6 = icmp sgt i32 %5, 0
  ret i1 %6
}

; Function Attrs: mustprogress nounwind uwtable
define available_externally noundef ptr @_ZNKSt7__cxx1112basic_stringIcSt11char_traitsIcESaIcEE4dataEv(ptr noundef nonnull align 8 dereferenceable(32) %0) #1 align 2 {
  %2 = alloca ptr, align 8
  store ptr %0, ptr %2, align 8, !tbaa !25
  %3 = load ptr, ptr %2, align 8
  %4 = call noundef ptr @_ZNKSt7__cxx1112basic_stringIcSt11char_traitsIcESaIcEE7_M_dataEv(ptr noundef nonnull align 8 dereferenceable(32) %3)
  ret ptr %4
}

; Function Attrs: mustprogress uwtable
define noundef zeroext i1 @_ZNK4GURL10IsStandardEv(ptr noundef nonnull align 8 dereferenceable(120) %0) #0 align 2 {
  %2 = alloca ptr, align 8
  store ptr %0, ptr %2, align 8, !tbaa !3
  %3 = load ptr, ptr %2, align 8
  %4 = getelementptr inbounds nuw %class.GURL, ptr %3, i32 0, i32 0
  %5 = call noundef ptr @_ZNKSt7__cxx1112basic_stringIcSt11char_traitsIcESaIcEE4dataEv(ptr noundef nonnull align 8 dereferenceable(32) %4) #15
  %6 = getelementptr inbounds nuw %class.GURL, ptr %3, i32 0, i32 2
  %7 = getelementptr inbounds nuw %"struct.url::Parsed", ptr %6, i32 0, i32 0
  %8 = call noundef zeroext i1 @_ZN3url10IsStandardEPKcRKNS_9ComponentE(ptr noundef %5, ptr noundef nonnull align 4 dereferenceable(8) %7)
  ret i1 %8
}

; Function Attrs: mustprogress uwtable
define noundef i32 @_ZNK4GURL7IntPortEv(ptr noundef nonnull align 8 dereferenceable(120) %0) #0 align 2 {
  %2 = alloca i32, align 4
  %3 = alloca ptr, align 8
  store ptr %0, ptr %3, align 8, !tbaa !3
  %4 = load ptr, ptr %3, align 8
  %5 = getelementptr inbounds nuw %class.GURL, ptr %4, i32 0, i32 2
  %6 = getelementptr inbounds nuw %"struct.url::Parsed", ptr %5, i32 0, i32 4
  %7 = call noundef zeroext i1 @_ZNK3url9Component11is_nonemptyEv(ptr noundef nonnull align 4 dereferenceable(8) %6)
  br i1 %7, label %8, label %14

8:                                                ; preds = %1
  %9 = getelementptr inbounds nuw %class.GURL, ptr %4, i32 0, i32 0
  %10 = call noundef ptr @_ZNKSt7__cxx1112basic_stringIcSt11char_traitsIcESaIcEE4dataEv(ptr noundef nonnull align 8 dereferenceable(32) %9) #15
  %11 = getelementptr inbounds nuw %class.GURL, ptr %4, i32 0, i32 2
  %12 = getelementptr inbounds nuw %"struct.url::Parsed", ptr %11, i32 0, i32 4
  %13 = call noundef i32 @_ZN3url9ParsePortEPKcRKNS_9ComponentE(ptr noundef %10, ptr noundef nonnull align 4 dereferenceable(8) %12)
  store i32 %13, ptr %2, align 4
  br label %15

14:                                               ; preds = %1
  store i32 -1, ptr %2, align 4
  br label %15

15:                                               ; preds = %14, %8
  %16 = load i32, ptr %2, align 4
  ret i32 %16
}

; Function Attrs: mustprogress uwtable
define noundef i32 @_ZNK4GURL16EffectiveIntPortEv(ptr noundef nonnull align 8 dereferenceable(120) %0) #0 align 2 {
  %2 = alloca i32, align 4
  %3 = alloca ptr, align 8
  %4 = alloca i32, align 4
  %5 = alloca i32, align 4
  store ptr %0, ptr %3, align 8, !tbaa !3
  %6 = load ptr, ptr %3, align 8
  call void @llvm.lifetime.start.p0(i64 4, ptr %4) #15
  %7 = call noundef i32 @_ZNK4GURL7IntPortEv(ptr noundef nonnull align 8 dereferenceable(120) %6)
  store i32 %7, ptr %4, align 4, !tbaa !66
  %8 = load i32, ptr %4, align 4, !tbaa !66
  %9 = icmp eq i32 %8, -1
  br i1 %9, label %10, label %26

10:                                               ; preds = %1
  %11 = call noundef zeroext i1 @_ZNK4GURL10IsStandardEv(ptr noundef nonnull align 8 dereferenceable(120) %6)
  br i1 %11, label %12, label %26

12:                                               ; preds = %10
  %13 = getelementptr inbounds nuw %class.GURL, ptr %6, i32 0, i32 0
  %14 = call noundef ptr @_ZNKSt7__cxx1112basic_stringIcSt11char_traitsIcESaIcEE4dataEv(ptr noundef nonnull align 8 dereferenceable(32) %13) #15
  %15 = getelementptr inbounds nuw %class.GURL, ptr %6, i32 0, i32 2
  %16 = getelementptr inbounds nuw %"struct.url::Parsed", ptr %15, i32 0, i32 0
  %17 = getelementptr inbounds nuw %"struct.url::Component", ptr %16, i32 0, i32 0
  %18 = load i32, ptr %17, align 8, !tbaa !81
  %19 = sext i32 %18 to i64
  %20 = getelementptr inbounds i8, ptr %14, i64 %19
  %21 = getelementptr inbounds nuw %class.GURL, ptr %6, i32 0, i32 2
  %22 = getelementptr inbounds nuw %"struct.url::Parsed", ptr %21, i32 0, i32 0
  %23 = getelementptr inbounds nuw %"struct.url::Component", ptr %22, i32 0, i32 1
  %24 = load i32, ptr %23, align 4, !tbaa !80
  %25 = call noundef i32 @_ZN3url20DefaultPortForSchemeEPKci(ptr noundef %20, i32 noundef %24)
  store i32 %25, ptr %2, align 4
  store i32 1, ptr %5, align 4
  br label %28

26:                                               ; preds = %10, %1
  %27 = load i32, ptr %4, align 4, !tbaa !66
  store i32 %27, ptr %2, align 4
  store i32 1, ptr %5, align 4
  br label %28

28:                                               ; preds = %26, %12
  call void @llvm.lifetime.end.p0(i64 4, ptr %4) #15
  %29 = load i32, ptr %2, align 4
  ret i32 %29
}