; Function Attrs: mustprogress uwtable
define noundef i32 @_ZNK4GURL16EffectiveIntPortEv(ptr noundef nonnull align 8 dereferenceable(120) %0) local_unnamed_addr #0 align 2 {
  %2 = getelementptr inbounds nuw i8, ptr %0, i64 76
  %3 = load i32, ptr %2, align 4, !tbaa !53
  %4 = icmp sgt i32 %3, 0
  br i1 %4, label %_ZNK4GURL7IntPortEv.exit, label %_ZNK4GURL7IntPortEv.exit.thread

_ZNK4GURL7IntPortEv.exit:                         ; preds = %1
  %5 = getelementptr inbounds nuw i8, ptr %0, i64 72
  %6 = load ptr, ptr %0, align 8, !tbaa !28
  %7 = tail call noundef i32 @_ZN3url9ParsePortEPKcRKNS_9ComponentE(ptr noundef %6, ptr noundef nonnull align 4 dereferenceable(8) %5)
  %8 = icmp eq i32 %7, -1
  br i1 %8, label %_ZNK4GURL7IntPortEv.exit.thread, label %20

_ZNK4GURL7IntPortEv.exit.thread:                  ; preds = %1, %_ZNK4GURL7IntPortEv.exit
  %9 = load ptr, ptr %0, align 8, !tbaa !28
  %10 = getelementptr inbounds nuw i8, ptr %0, i64 40
  %11 = tail call noundef zeroext i1 @_ZN3url10IsStandardEPKcRKNS_9ComponentE(ptr noundef %9, ptr noundef nonnull align 4 dereferenceable(8) %10)
  br i1 %11, label %12, label %20

12:                                               ; preds = %_ZNK4GURL7IntPortEv.exit.thread
  %13 = load ptr, ptr %0, align 8, !tbaa !28
  %14 = load i32, ptr %10, align 8, !tbaa !55
  %15 = sext i32 %14 to i64
  %16 = getelementptr inbounds i8, ptr %13, i64 %15
  %17 = getelementptr inbounds nuw i8, ptr %0, i64 44
  %18 = load i32, ptr %17, align 4, !tbaa !33
  %19 = tail call noundef i32 @_ZN3url20DefaultPortForSchemeEPKci(ptr noundef %16, i32 noundef %18)
  br label %20

20:                                               ; preds = %_ZNK4GURL7IntPortEv.exit, %_ZNK4GURL7IntPortEv.exit.thread, %12
  %.0 = phi i32 [ %19, %12 ], [ -1, %_ZNK4GURL7IntPortEv.exit.thread ], [ %7, %_ZNK4GURL7IntPortEv.exit ]
  ret i32 %.0
}